target datalayout = "e-m:e-p270:32:32-p271:32:32-p272:64:64-i64:64-i128:128-f80:128-n8:16:32:64-S128"
target triple = "x86_64-pc-linux-gnu"

%struct.expert_field = type { i32, i32 }
%struct._packet_info = type { ptr, ptr, i32, i32, %struct.nstime_t, %struct.nstime_t, %struct.nstime_t, i8, ptr, ptr, ptr, ptr, %struct._address, %struct._address, %struct._address, %struct._address, %struct._address, %struct._address, i32, ptr, i8, [3 x i8], %struct.anon.1, i32, i32, i32, i32, ptr, i8, ptr, ptr, i16, i16, i32, i32, i16, i32, i32, ptr, ptr, ptr, i8, i8, i16, i16, i16, i32, i16, i16, ptr, ptr, ptr, ptr, ptr, i32, i32 }
%struct.nstime_t = type { i64, i32 }
%struct._address = type { i32, i32, ptr, ptr }
%struct.anon.1 = type { i8, [3 x i8] }

@hf_amqp_field = internal global i32 0, align 4
@hf_amqp_field_name = internal global i32 0, align 4
@ett_amqp = internal global i32 0, align 4
@ett_amqp_0_9_field = internal global i32 0, align 4
@ei_amqp_field_short = internal global %struct.expert_field zeroinitializer, align 4
@.str.1468 = private unnamed_addr constant [3 x i8] c"%s\00", align 1

; Function Attrs: null_pointer_is_valid sspstrong uwtable
define internal void @dissect_amqp_0_9_field_table(ptr noundef %0, ptr noundef %1, i32 noundef %2, i32 noundef %3, ptr noundef %4) #0 {
  %6 = alloca ptr, align 8
  %7 = alloca ptr, align 8
  %8 = alloca i32, align 4
  %9 = alloca i32, align 4
  %10 = alloca ptr, align 8
  %11 = alloca ptr, align 8
  %12 = alloca ptr, align 8
  %13 = alloca ptr, align 8
  %14 = alloca i32, align 4
  %15 = alloca i32, align 4
  %16 = alloca ptr, align 8
  %17 = alloca i32, align 4
  %18 = alloca i32, align 4
  store ptr %0, ptr %6, align 8
  store ptr %1, ptr %7, align 8
  store i32 %2, ptr %8, align 4
  store i32 %3, ptr %9, align 4
  store ptr %4, ptr %10, align 8
  call void @llvm.lifetime.start.p0(i64 8, ptr %11) #11
  call void @llvm.lifetime.start.p0(i64 8, ptr %12) #11
  call void @llvm.lifetime.start.p0(i64 8, ptr %13) #11
  call void @llvm.lifetime.start.p0(i64 4, ptr %14) #11
  call void @llvm.lifetime.start.p0(i64 4, ptr %15) #11
  call void @llvm.lifetime.start.p0(i64 8, ptr %16) #11
  call void @llvm.lifetime.start.p0(i64 4, ptr %17) #11
  %19 = load ptr, ptr %10, align 8
  %20 = load i32, ptr @ett_amqp, align 4
  %21 = call ptr @proto_item_add_subtree(ptr noundef %19, i32 noundef %20)
  store ptr %21, ptr %11, align 8
  br label %22

22:                                               ; preds = %77, %5
  %23 = load i32, ptr %9, align 4
  %24 = icmp ne i32 %23, 0
  br i1 %24, label %25, label %84

25:                                               ; preds = %22
  %26 = load i32, ptr %8, align 4
  store i32 %26, ptr %17, align 4
  %27 = load ptr, ptr %11, align 8
  %28 = load i32, ptr @hf_amqp_field, align 4
  %29 = load ptr, ptr %6, align 8
  %30 = load i32, ptr %8, align 4
  %31 = call ptr @proto_tree_add_item(ptr noundef %27, i32 noundef %28, ptr noundef %29, i32 noundef %30, i32 noundef 1, i32 noundef 0)
  store ptr %31, ptr %13, align 8
  %32 = load ptr, ptr %6, align 8
  %33 = load i32, ptr %8, align 4
  %34 = call zeroext i8 @tvb_get_uint8(ptr noundef %32, i32 noundef %33)
  %35 = zext i8 %34 to i32
  store i32 %35, ptr %14, align 4
  %36 = load i32, ptr %8, align 4
  %37 = add i32 %36, 1
  store i32 %37, ptr %8, align 4
  %38 = load i32, ptr %9, align 4
  %39 = sub i32 %38, 1
  store i32 %39, ptr %9, align 4
  %40 = load i32, ptr %9, align 4
  %41 = load i32, ptr %14, align 4
  %42 = icmp ult i32 %40, %41
  br i1 %42, label %43, label %44

43:                                               ; preds = %25
  br label %85

44:                                               ; preds = %25
  %45 = load ptr, ptr %13, align 8
  %46 = load i32, ptr @ett_amqp_0_9_field, align 4
  %47 = call ptr @proto_item_add_subtree(ptr noundef %45, i32 noundef %46)
  store ptr %47, ptr %12, align 8
  %48 = load ptr, ptr %12, align 8
  %49 = load i32, ptr @hf_amqp_field_name, align 4
  %50 = load ptr, ptr %6, align 8
  %51 = load i32, ptr %8, align 4
  %52 = load i32, ptr %14, align 4
  %53 = load ptr, ptr %7, align 8
  %54 = getelementptr inbounds nuw %struct._packet_info, ptr %53, i32 0, i32 51
  %55 = load ptr, ptr %54, align 8
  %56 = call ptr @proto_tree_add_item_ret_string(ptr noundef %48, i32 noundef %49, ptr noundef %50, i32 noundef %51, i32 noundef %52, i32 noundef 2, ptr noundef %55, ptr noundef %16)
  %57 = load ptr, ptr %13, align 8
  %58 = load ptr, ptr %16, align 8
  call void (ptr, ptr, ...) @proto_item_set_text(ptr noundef %57, ptr noundef @.str.1468, ptr noundef %58)
  %59 = load i32, ptr %14, align 4
  %60 = load i32, ptr %8, align 4
  %61 = add i32 %60, %59
  store i32 %61, ptr %8, align 4
  %62 = load i32, ptr %14, align 4
  %63 = load i32, ptr %9, align 4
  %64 = sub i32 %63, %62
  store i32 %64, ptr %9, align 4
  %65 = load ptr, ptr %7, align 8
  call void @increment_dissection_depth(ptr noundef %65)
  %66 = load ptr, ptr %6, align 8
  %67 = load ptr, ptr %7, align 8
  %68 = load i32, ptr %8, align 4
  %69 = load i32, ptr %9, align 4
  %70 = load ptr, ptr %16, align 8
  %71 = load ptr, ptr %12, align 8
  %72 = call i32 @dissect_amqp_0_9_field_value(ptr noundef %66, ptr noundef %67, i32 noundef %68, i32 noundef %69, ptr noundef %70, ptr noundef %71)
  store i32 %72, ptr %15, align 4
  %73 = load ptr, ptr %7, align 8
  call void @decrement_dissection_depth(ptr noundef %73)
  %74 = load i32, ptr %15, align 4
  %75 = icmp eq i32 %74, 0
  br i1 %75, label %76, label %77

76:                                               ; preds = %44
  br label %85

77:                                               ; preds = %44
  %78 = load i32, ptr %15, align 4
  %79 = load i32, ptr %8, align 4
  %80 = add i32 %79, %78
  store i32 %80, ptr %8, align 4
  %81 = load i32, ptr %15, align 4
  %82 = load i32, ptr %9, align 4
  %83 = sub i32 %82, %81
  store i32 %83, ptr %9, align 4
  br label %22, !llvm.loop !12

84:                                               ; preds = %22
  store i32 1, ptr %18, align 4
  br label %94

85:                                               ; preds = %76, %43
  %86 = load ptr, ptr %11, align 8
  %87 = load ptr, ptr %7, align 8
  %88 = load ptr, ptr %6, align 8
  %89 = load i32, ptr %17, align 4
  %90 = load i32, ptr %8, align 4
  %91 = load i32, ptr %17, align 4
  %92 = sub i32 %90, %91
  %93 = call ptr @proto_tree_add_expert(ptr noundef %86, ptr noundef %87, ptr noundef @ei_amqp_field_short, ptr noundef %88, i32 noundef %89, i32 noundef %92)
  store i32 1, ptr %18, align 4
  br label %94

94:                                               ; preds = %85, %84
  call void @llvm.lifetime.end.p0(i64 4, ptr %17) #11
  call void @llvm.lifetime.end.p0(i64 8, ptr %16) #11
  call void @llvm.lifetime.end.p0(i64 4, ptr %15) #11
  call void @llvm.lifetime.end.p0(i64 4, ptr %14) #11
  call void @llvm.lifetime.end.p0(i64 8, ptr %13) #11
  call void @llvm.lifetime.end.p0(i64 8, ptr %12) #11
  call void @llvm.lifetime.end.p0(i64 8, ptr %11) #11
  ret void
}