; Function Attrs: null_pointer_is_valid sspstrong uwtable
define internal fastcc void @dissect_amqp_0_9_field_table(ptr noundef %0, ptr noundef %1, i32 noundef %2, i32 noundef %3, ptr noundef %4) unnamed_addr #0 {
  %6 = alloca ptr, align 8
  call void @llvm.lifetime.start.p0(i64 8, ptr nonnull %6) #14
  %7 = load i32, ptr @ett_amqp, align 4
  %8 = tail call ptr @proto_item_add_subtree(ptr noundef %4, i32 noundef %7)
  %.not45 = icmp eq i32 %3, 0
  br i1 %.not45, label %.loopexit, label %.lr.ph

.lr.ph:                                           ; preds = %5
  %9 = getelementptr inbounds nuw i8, ptr %1, i64 408
  br label %10

10:                                               ; preds = %.lr.ph, %29
  %.047 = phi i32 [ %2, %.lr.ph ], [ %30, %29 ]
  %.04046 = phi i32 [ %3, %.lr.ph ], [ %31, %29 ]
  %11 = load i32, ptr @hf_amqp_field, align 4
  %12 = call ptr @proto_tree_add_item(ptr noundef %8, i32 noundef %11, ptr noundef %0, i32 noundef %.047, i32 noundef 1, i32 noundef 0)
  %13 = call zeroext i8 @tvb_get_uint8(ptr noundef %0, i32 noundef %.047)
  %14 = zext i8 %13 to i32
  %15 = add i32 %.047, 1
  %16 = add i32 %.04046, -1
  %17 = icmp ult i32 %16, %14
  br i1 %17, label %32, label %18

18:                                               ; preds = %10
  %19 = load i32, ptr @ett_amqp_0_9_field, align 4
  %20 = call ptr @proto_item_add_subtree(ptr noundef %12, i32 noundef %19)
  %21 = load i32, ptr @hf_amqp_field_name, align 4
  %22 = load ptr, ptr %9, align 8
  %23 = call ptr @proto_tree_add_item_ret_string(ptr noundef %20, i32 noundef %21, ptr noundef %0, i32 noundef %15, i32 noundef %14, i32 noundef 2, ptr noundef %22, ptr noundef nonnull %6)
  %24 = load ptr, ptr %6, align 8
  call void (ptr, ptr, ...) @proto_item_set_text(ptr noundef %12, ptr noundef nonnull @.str.1468, ptr noundef %24)
  %25 = add i32 %15, %14
  %26 = sub nuw i32 %16, %14
  call void @increment_dissection_depth(ptr noundef %1)
  %27 = call fastcc i32 @dissect_amqp_0_9_field_value(ptr noundef %0, ptr noundef %1, i32 noundef %25, i32 noundef %26, ptr noundef %20)
  call void @decrement_dissection_depth(ptr noundef %1)
  %28 = icmp eq i32 %27, 0
  br i1 %28, label %32, label %29

29:                                               ; preds = %18
  %30 = add i32 %27, %25
  %31 = sub i32 %26, %27
  %.not = icmp eq i32 %31, 0
  br i1 %.not, label %.loopexit, label %10, !llvm.loop !10

32:                                               ; preds = %18, %10
  %.1 = phi i32 [ %15, %10 ], [ %25, %18 ]
  %33 = sub i32 %.1, %.047
  %34 = call ptr @proto_tree_add_expert(ptr noundef %8, ptr noundef %1, ptr noundef nonnull @ei_amqp_field_short, ptr noundef %0, i32 noundef %.047, i32 noundef %33)
  br label %.loopexit

.loopexit:                                        ; preds = %29, %5, %32
  call void @llvm.lifetime.end.p0(i64 8, ptr nonnull %6) #14
  ret void
}